
rootfs/bin/hello:     file format elf64-x86-64

Disassembly of section .text:

00000000004000b0 <_start>:
  4000b0:	48 81 ec a8 00 00 00 	sub    $0xa8,%rsp
  4000b7:	48 89 e2             	mov    %rsp,%rdx
  4000ba:	48 8d 74 24 50       	lea    0x50(%rsp),%rsi
  4000bf:	bf 01 00 00 00       	mov    $0x1,%edi
  4000c4:	e8 0f 00 00 00       	callq  4000d8 <main>
  4000c9:	89 c7                	mov    %eax,%edi
  4000cb:	e8 38 00 00 00       	callq  400108 <exit>
  4000d0:	48 81 c4 a8 00 00 00 	add    $0xa8,%rsp
  4000d7:	c3                   	retq   

00000000004000d8 <main>:
  4000d8:	48 83 ec 08          	sub    $0x8,%rsp
  4000dc:	48 8d 3d 25 04 00 00 	lea    1061(%rip),%rdi        # 400508 <printf+0x35d>
  4000e3:	b8 00 00 00 00       	mov    $0x0,%eax
  4000e8:	e8 be 00 00 00       	callq  4001ab <printf>
  4000ed:	e8 26 00 00 00       	callq  400118 <user_fork>
  4000f2:	48 8d 3d 1b 04 00 00 	lea    1051(%rip),%rdi        # 400514 <printf+0x369>
  4000f9:	b8 00 00 00 00       	mov    $0x0,%eax
  4000fe:	e8 a8 00 00 00       	callq  4001ab <printf>
  400103:	eb fe                	jmp    400103 <main+0x2b>
  400105:	90                   	nop    
  400106:	90                   	nop    
  400107:	90                   	nop    

0000000000400108 <exit>:
  400108:	53                   	push   %rbx
  400109:	b8 00 00 00 00       	mov    $0x0,%eax
  40010e:	bb 01 00 00 00       	mov    $0x1,%ebx
  400113:	cd 80                	int    $0x80
  400115:	5b                   	pop    %rbx
  400116:	c3                   	retq   
  400117:	90                   	nop    

0000000000400118 <user_fork>:
  400118:	b8 19 00 00 00       	mov    $0x19,%eax
  40011d:	cd 80                	int    $0x80
  40011f:	c3                   	retq   

0000000000400120 <convert_to_string>:
  400120:	c6 01 00             	movb   $0x0,(%rcx)
  400123:	8d 42 fe             	lea    0xfffffffffffffffe(%rdx),%eax
  400126:	83 f8 22             	cmp    $0x22,%eax
  400129:	76 07                	jbe    400132 <convert_to_string+0x12>
  40012b:	c6 06 00             	movb   $0x0,(%rsi)
  40012e:	48 89 f0             	mov    %rsi,%rax
  400131:	c3                   	retq   
  400132:	48 83 ec 20          	sub    $0x20,%rsp
  400136:	4c 8d 44 24 02       	lea    0x2(%rsp),%r8
  40013b:	b9 00 00 00 00       	mov    $0x0,%ecx
  400140:	4c 63 ca             	movslq %edx,%r9
  400143:	44 8d 51 01          	lea    0x1(%rcx),%r10d
  400147:	48 89 f8             	mov    %rdi,%rax
  40014a:	ba 00 00 00 00       	mov    $0x0,%edx
  40014f:	49 f7 f1             	div    %r9
  400152:	48 8d 3d fa 03 00 00 	lea    1018(%rip),%rdi        # 400553 <printf+0x3a8>
  400159:	0f b6 14 3a          	movzbl (%rdx,%rdi,1),%edx
  40015d:	41 88 10             	mov    %dl,(%r8)
  400160:	48 89 c7             	mov    %rax,%rdi
  400163:	49 ff c0             	inc    %r8
  400166:	48 85 c0             	test   %rax,%rax
  400169:	74 05                	je     400170 <convert_to_string+0x50>
  40016b:	44 89 d1             	mov    %r10d,%ecx
  40016e:	eb d3                	jmp    400143 <convert_to_string+0x23>
  400170:	41 89 c8             	mov    %ecx,%r8d
  400173:	4d 63 d2             	movslq %r10d,%r10
  400176:	42 c6 44 14 02 00    	movb   $0x0,0x2(%rsp,%r10,1)
  40017c:	85 c9                	test   %ecx,%ecx
  40017e:	78 20                	js     4001a0 <convert_to_string+0x80>
  400180:	48 89 f2             	mov    %rsi,%rdx
  400183:	48 63 c1             	movslq %ecx,%rax
  400186:	0f b6 7c 04 02       	movzbl 0x2(%rsp,%rax,1),%edi
  40018b:	40 88 3a             	mov    %dil,(%rdx)
  40018e:	ff c9                	dec    %ecx
  400190:	48 ff c2             	inc    %rdx
  400193:	83 f9 ff             	cmp    $0xffffffffffffffff,%ecx
  400196:	75 eb                	jne    400183 <convert_to_string+0x63>
  400198:	45 89 c0             	mov    %r8d,%r8d
  40019b:	4a 8d 74 06 01       	lea    0x1(%rsi,%r8,1),%rsi
  4001a0:	c6 06 00             	movb   $0x0,(%rsi)
  4001a3:	48 89 f0             	mov    %rsi,%rax
  4001a6:	48 83 c4 20          	add    $0x20,%rsp
  4001aa:	c3                   	retq   

00000000004001ab <printf>:
  4001ab:	41 56                	push   %r14
  4001ad:	41 55                	push   %r13
  4001af:	41 54                	push   %r12
  4001b1:	55                   	push   %rbp
  4001b2:	53                   	push   %rbx
  4001b3:	48 81 ec 10 01 00 00 	sub    $0x110,%rsp
  4001ba:	48 89 b4 24 e8 00 00 	mov    %rsi,0xe8(%rsp)
  4001c1:	00 
  4001c2:	48 89 94 24 f0 00 00 	mov    %rdx,0xf0(%rsp)
  4001c9:	00 
  4001ca:	48 89 8c 24 f8 00 00 	mov    %rcx,0xf8(%rsp)
  4001d1:	00 
  4001d2:	4c 89 84 24 00 01 00 	mov    %r8,0x100(%rsp)
  4001d9:	00 
  4001da:	4c 89 8c 24 08 01 00 	mov    %r9,0x108(%rsp)
  4001e1:	00 
  4001e2:	49 89 fc             	mov    %rdi,%r12
  4001e5:	c7 84 24 c8 00 00 00 	movl   $0x8,0xc8(%rsp)
  4001ec:	08 00 00 00 
  4001f0:	48 8d 84 24 40 01 00 	lea    0x140(%rsp),%rax
  4001f7:	00 
  4001f8:	48 89 84 24 d0 00 00 	mov    %rax,0xd0(%rsp)
  4001ff:	00 
  400200:	48 8d 84 24 e0 00 00 	lea    0xe0(%rsp),%rax
  400207:	00 
  400208:	48 89 84 24 d8 00 00 	mov    %rax,0xd8(%rsp)
  40020f:	00 
  400210:	c6 44 24 0a 30       	movb   $0x30,0xa(%rsp)
  400215:	c6 44 24 0b 31       	movb   $0x31,0xb(%rsp)
  40021a:	c6 44 24 0c 32       	movb   $0x32,0xc(%rsp)
  40021f:	c6 44 24 0d 33       	movb   $0x33,0xd(%rsp)
  400224:	c6 44 24 0e 34       	movb   $0x34,0xe(%rsp)
  400229:	c6 44 24 0f 35       	movb   $0x35,0xf(%rsp)
  40022e:	c6 44 24 10 36       	movb   $0x36,0x10(%rsp)
  400233:	c6 44 24 11 37       	movb   $0x37,0x11(%rsp)
  400238:	c6 44 24 12 38       	movb   $0x38,0x12(%rsp)
  40023d:	c6 44 24 13 39       	movb   $0x39,0x13(%rsp)
  400242:	bb 00 00 00 00       	mov    $0x0,%ebx
  400247:	4c 8d 2d 2a 03 00 00 	lea    810(%rip),%r13        # 400578 <printf+0x3cd>
  40024e:	48 bd cd cc cc cc cc 	mov    $0xcccccccccccccccd,%rbp
  400255:	cc cc cc 
  400258:	4c 8d 74 24 64       	lea    0x64(%rsp),%r14
  40025d:	e9 60 02 00 00       	jmpq   4004c2 <printf+0x317>
  400262:	3c 09                	cmp    $0x9,%al
  400264:	74 1d                	je     400283 <printf+0xd8>
  400266:	3c 25                	cmp    $0x25,%al
  400268:	74 19                	je     400283 <printf+0xd8>
  40026a:	3c 0a                	cmp    $0xa,%al
  40026c:	0f 1f 40 00          	nopl   0x0(%rax)
  400270:	74 2b                	je     40029d <printf+0xf2>
  400272:	48 63 d3             	movslq %ebx,%rdx
  400275:	88 44 14 14          	mov    %al,0x14(%rsp,%rdx,1)
  400279:	ff c3                	inc    %ebx
  40027b:	49 ff c4             	inc    %r12
  40027e:	e9 3f 02 00 00       	jmpq   4004c2 <printf+0x317>
  400283:	3c 09                	cmp    $0x9,%al
  400285:	75 12                	jne    400299 <printf+0xee>
  400287:	48 63 c3             	movslq %ebx,%rax
  40028a:	c6 44 04 14 09       	movb   $0x9,0x14(%rsp,%rax,1)
  40028f:	ff c3                	inc    %ebx
  400291:	49 ff c4             	inc    %r12
  400294:	e9 29 02 00 00       	jmpq   4004c2 <printf+0x317>
  400299:	3c 0a                	cmp    $0xa,%al
  40029b:	75 12                	jne    4002af <printf+0x104>
  40029d:	48 63 c3             	movslq %ebx,%rax
  4002a0:	c6 44 04 14 0a       	movb   $0xa,0x14(%rsp,%rax,1)
  4002a5:	ff c3                	inc    %ebx
  4002a7:	49 ff c4             	inc    %r12
  4002aa:	e9 13 02 00 00       	jmpq   4004c2 <printf+0x317>
  4002af:	41 0f b6 44 24 01    	movzbl 0x1(%r12),%eax
  4002b5:	83 e8 63             	sub    $0x63,%eax
  4002b8:	3c 15                	cmp    $0x15,%al
  4002ba:	0f 87 fe 01 00 00    	ja     4004be <printf+0x313>
  4002c0:	0f b6 c0             	movzbl %al,%eax
  4002c3:	49 63 44 85 00       	movslq 0x0(%r13,%rax,4),%rax
  4002c8:	4c 01 e8             	add    %r13,%rax
  4002cb:	ff e0                	jmpq   *%rax
  4002cd:	8b 84 24 c8 00 00 00 	mov    0xc8(%rsp),%eax
  4002d4:	83 f8 30             	cmp    $0x30,%eax
  4002d7:	73 16                	jae    4002ef <printf+0x144>
  4002d9:	89 c2                	mov    %eax,%edx
  4002db:	48 03 94 24 d8 00 00 	add    0xd8(%rsp),%rdx
  4002e2:	00 
  4002e3:	83 c0 08             	add    $0x8,%eax
  4002e6:	89 84 24 c8 00 00 00 	mov    %eax,0xc8(%rsp)
  4002ed:	eb 14                	jmp    400303 <printf+0x158>
  4002ef:	48 8b 94 24 d0 00 00 	mov    0xd0(%rsp),%rdx
  4002f6:	00 
  4002f7:	48 8d 42 08          	lea    0x8(%rdx),%rax
  4002fb:	48 89 84 24 d0 00 00 	mov    %rax,0xd0(%rsp)
  400302:	00 
  400303:	48 63 3a             	movslq (%rdx),%rdi
  400306:	4c 89 f1             	mov    %r14,%rcx
  400309:	ba 0a 00 00 00       	mov    $0xa,%edx
  40030e:	4c 89 f6             	mov    %r14,%rsi
  400311:	e8 0a fe ff ff       	callq  400120 <convert_to_string>
  400316:	0f b6 44 24 64       	movzbl 0x64(%rsp),%eax
  40031b:	84 c0                	test   %al,%al
  40031d:	0f 84 9b 01 00 00    	je     4004be <printf+0x313>
  400323:	4c 89 f2             	mov    %r14,%rdx
  400326:	48 63 cb             	movslq %ebx,%rcx
  400329:	88 44 0c 14          	mov    %al,0x14(%rsp,%rcx,1)
  40032d:	48 ff c2             	inc    %rdx
  400330:	ff c3                	inc    %ebx
  400332:	0f b6 02             	movzbl (%rdx),%eax
  400335:	84 c0                	test   %al,%al
  400337:	75 ed                	jne    400326 <printf+0x17b>
  400339:	e9 80 01 00 00       	jmpq   4004be <printf+0x313>
  40033e:	8b 84 24 c8 00 00 00 	mov    0xc8(%rsp),%eax
  400345:	83 f8 30             	cmp    $0x30,%eax
  400348:	73 16                	jae    400360 <printf+0x1b5>
  40034a:	89 c2                	mov    %eax,%edx
  40034c:	48 03 94 24 d8 00 00 	add    0xd8(%rsp),%rdx
  400353:	00 
  400354:	83 c0 08             	add    $0x8,%eax
  400357:	89 84 24 c8 00 00 00 	mov    %eax,0xc8(%rsp)
  40035e:	eb 14                	jmp    400374 <printf+0x1c9>
  400360:	48 8b 94 24 d0 00 00 	mov    0xd0(%rsp),%rdx
  400367:	00 
  400368:	48 8d 42 08          	lea    0x8(%rdx),%rax
  40036c:	48 89 84 24 d0 00 00 	mov    %rax,0xd0(%rsp)
  400373:	00 
  400374:	48 8b 12             	mov    (%rdx),%rdx
  400377:	0f b6 02             	movzbl (%rdx),%eax
  40037a:	84 c0                	test   %al,%al
  40037c:	0f 84 3c 01 00 00    	je     4004be <printf+0x313>
  400382:	48 63 cb             	movslq %ebx,%rcx
  400385:	88 44 0c 14          	mov    %al,0x14(%rsp,%rcx,1)
  400389:	ff c3                	inc    %ebx
  40038b:	48 ff c2             	inc    %rdx
  40038e:	0f b6 02             	movzbl (%rdx),%eax
  400391:	84 c0                	test   %al,%al
  400393:	75 ed                	jne    400382 <printf+0x1d7>
  400395:	e9 24 01 00 00       	jmpq   4004be <printf+0x313>
  40039a:	8b 84 24 c8 00 00 00 	mov    0xc8(%rsp),%eax
  4003a1:	83 f8 30             	cmp    $0x30,%eax
  4003a4:	73 16                	jae    4003bc <printf+0x211>
  4003a6:	89 c7                	mov    %eax,%edi
  4003a8:	48 03 bc 24 d8 00 00 	add    0xd8(%rsp),%rdi
  4003af:	00 
  4003b0:	83 c0 08             	add    $0x8,%eax
  4003b3:	89 84 24 c8 00 00 00 	mov    %eax,0xc8(%rsp)
  4003ba:	eb 14                	jmp    4003d0 <printf+0x225>
  4003bc:	48 8b bc 24 d0 00 00 	mov    0xd0(%rsp),%rdi
  4003c3:	00 
  4003c4:	48 8d 47 08          	lea    0x8(%rdi),%rax
  4003c8:	48 89 84 24 d0 00 00 	mov    %rax,0xd0(%rsp)
  4003cf:	00 
  4003d0:	4c 89 f1             	mov    %r14,%rcx
  4003d3:	ba 10 00 00 00       	mov    $0x10,%edx
  4003d8:	4c 89 f6             	mov    %r14,%rsi
  4003db:	48 8b 3f             	mov    (%rdi),%rdi
  4003de:	e8 3d fd ff ff       	callq  400120 <convert_to_string>
  4003e3:	0f b6 44 24 64       	movzbl 0x64(%rsp),%eax
  4003e8:	84 c0                	test   %al,%al
  4003ea:	0f 84 ce 00 00 00    	je     4004be <printf+0x313>
  4003f0:	4c 89 f2             	mov    %r14,%rdx
  4003f3:	48 63 cb             	movslq %ebx,%rcx
  4003f6:	88 44 0c 14          	mov    %al,0x14(%rsp,%rcx,1)
  4003fa:	48 ff c2             	inc    %rdx
  4003fd:	ff c3                	inc    %ebx
  4003ff:	0f b6 02             	movzbl (%rdx),%eax
  400402:	84 c0                	test   %al,%al
  400404:	75 ed                	jne    4003f3 <printf+0x248>
  400406:	e9 b3 00 00 00       	jmpq   4004be <printf+0x313>
  40040b:	8b 84 24 c8 00 00 00 	mov    0xc8(%rsp),%eax
  400412:	83 f8 30             	cmp    $0x30,%eax
  400415:	73 16                	jae    40042d <printf+0x282>
  400417:	89 c2                	mov    %eax,%edx
  400419:	48 03 94 24 d8 00 00 	add    0xd8(%rsp),%rdx
  400420:	00 
  400421:	83 c0 08             	add    $0x8,%eax
  400424:	89 84 24 c8 00 00 00 	mov    %eax,0xc8(%rsp)
  40042b:	eb 14                	jmp    400441 <printf+0x296>
  40042d:	48 8b 94 24 d0 00 00 	mov    0xd0(%rsp),%rdx
  400434:	00 
  400435:	48 8d 42 08          	lea    0x8(%rdx),%rax
  400439:	48 89 84 24 d0 00 00 	mov    %rax,0xd0(%rsp)
  400440:	00 
  400441:	48 63 c3             	movslq %ebx,%rax
  400444:	8b 12                	mov    (%rdx),%edx
  400446:	88 54 04 14          	mov    %dl,0x14(%rsp,%rax,1)
  40044a:	ff c3                	inc    %ebx
  40044c:	eb 70                	jmp    4004be <printf+0x313>
  40044e:	8b 84 24 c8 00 00 00 	mov    0xc8(%rsp),%eax
  400455:	83 f8 30             	cmp    $0x30,%eax
  400458:	73 16                	jae    400470 <printf+0x2c5>
  40045a:	89 c2                	mov    %eax,%edx
  40045c:	48 03 94 24 d8 00 00 	add    0xd8(%rsp),%rdx
  400463:	00 
  400464:	83 c0 08             	add    $0x8,%eax
  400467:	89 84 24 c8 00 00 00 	mov    %eax,0xc8(%rsp)
  40046e:	eb 14                	jmp    400484 <printf+0x2d9>
  400470:	48 8b 94 24 d0 00 00 	mov    0xd0(%rsp),%rdx
  400477:	00 
  400478:	48 8d 42 08          	lea    0x8(%rdx),%rax
  40047c:	48 89 84 24 d0 00 00 	mov    %rax,0xd0(%rsp)
  400483:	00 
  400484:	48 8b 0a             	mov    (%rdx),%rcx
  400487:	48 85 c9             	test   %rcx,%rcx
  40048a:	74 32                	je     4004be <printf+0x313>
  40048c:	48 63 f3             	movslq %ebx,%rsi
  40048f:	48 89 c8             	mov    %rcx,%rax
  400492:	48 f7 e5             	mul    %rbp
  400495:	48 c1 ea 03          	shr    $0x3,%rdx
  400499:	48 8d 04 d5 00 00 00 	lea    0x0(,%rdx,8),%rax
  4004a0:	00 
  4004a1:	48 8d 04 50          	lea    (%rax,%rdx,2),%rax
  4004a5:	48 29 c1             	sub    %rax,%rcx
  4004a8:	48 63 c9             	movslq %ecx,%rcx
  4004ab:	0f b6 44 0c 0a       	movzbl 0xa(%rsp,%rcx,1),%eax
  4004b0:	88 44 34 14          	mov    %al,0x14(%rsp,%rsi,1)
  4004b4:	48 89 d1             	mov    %rdx,%rcx
  4004b7:	ff c3                	inc    %ebx
  4004b9:	48 85 d2             	test   %rdx,%rdx
  4004bc:	75 ce                	jne    40048c <printf+0x2e1>
  4004be:	49 83 c4 02          	add    $0x2,%r12
  4004c2:	41 0f b6 04 24       	movzbl (%r12),%eax
  4004c7:	84 c0                	test   %al,%al
  4004c9:	0f 85 93 fd ff ff    	jne    400262 <printf+0xb7>
  4004cf:	48 63 db             	movslq %ebx,%rbx
  4004d2:	c6 44 1c 14 00       	movb   $0x0,0x14(%rsp,%rbx,1)
  4004d7:	48 8d 5c 24 14       	lea    0x14(%rsp),%rbx
  4004dc:	ba 00 00 00 00       	mov    $0x0,%edx
  4004e1:	b8 0a 00 00 00       	mov    $0xa,%eax
  4004e6:	48 89 d1             	mov    %rdx,%rcx
  4004e9:	48 89 d7             	mov    %rdx,%rdi
  4004ec:	cd 80                	int    $0x80
  4004ee:	b8 00 00 00 00       	mov    $0x0,%eax
  4004f3:	48 81 c4 10 01 00 00 	add    $0x110,%rsp
  4004fa:	5b                   	pop    %rbx
  4004fb:	5d                   	pop    %rbp
  4004fc:	41 5c                	pop    %r12
  4004fe:	41 5d                	pop    %r13
  400500:	41 5e                	pop    %r14
  400502:	c3                   	retq   
Disassembly of section .text:

00000000004000b0 <_start>:
  4000b0:	48 81 ec a8 00 00 00 	sub    $0xa8,%rsp
  4000b7:	48 89 e2             	mov    %rsp,%rdx
  4000ba:	48 8d 74 24 50       	lea    0x50(%rsp),%rsi
  4000bf:	bf 01 00 00 00       	mov    $0x1,%edi
  4000c4:	e8 0f 00 00 00       	callq  4000d8 <main>
  4000c9:	89 c7                	mov    %eax,%edi
  4000cb:	e8 3c 00 00 00       	callq  40010c <exit>
  4000d0:	48 81 c4 a8 00 00 00 	add    $0xa8,%rsp
  4000d7:	c3                   	retq   

00000000004000d8 <main>:
  4000d8:	48 83 ec 08          	sub    $0x8,%rsp
  4000dc:	48 8d 3d 35 04 00 00 	lea    1077(%rip),%rdi        # 400518 <printf+0x35d>
  4000e3:	b8 00 00 00 00       	mov    $0x0,%eax
  4000e8:	e8 ce 00 00 00       	callq  4001bb <printf>
  4000ed:	e8 2a 00 00 00       	callq  40011c <user_fork>
  4000f2:	be 00 00 00 00       	mov    $0x0,%esi
  4000f7:	48 8d 3d 26 04 00 00 	lea    1062(%rip),%rdi        # 400524 <printf+0x369>
  4000fe:	b8 00 00 00 00       	mov    $0x0,%eax
  400103:	e8 b3 00 00 00       	callq  4001bb <printf>
  400108:	eb fe                	jmp    400108 <main+0x30>
  40010a:	90                   	nop    
  40010b:	90                   	nop    

000000000040010c <exit>:
  40010c:	53                   	push   %rbx
  40010d:	b8 00 00 00 00       	mov    $0x0,%eax
  400112:	bb 01 00 00 00       	mov    $0x1,%ebx
  400117:	cd 80                	int    $0x80
  400119:	5b                   	pop    %rbx
  40011a:	c3                   	retq   
  40011b:	90                   	nop    

000000000040011c <user_fork>:
  40011c:	b8 19 00 00 00       	mov    $0x19,%eax
  400121:	cd 80                	int    $0x80
  400123:	c3                   	retq   
  400124:	90                   	nop    
  400125:	90                   	nop    
  400126:	90                   	nop    
  400127:	90                   	nop    
  400128:	90                   	nop    
  400129:	90                   	nop    
  40012a:	90                   	nop    
  40012b:	90                   	nop    
  40012c:	90                   	nop    
  40012d:	90                   	nop    
  40012e:	90                   	nop    
  40012f:	90                   	nop    

0000000000400130 <convert_to_string>:
  400130:	c6 01 00             	movb   $0x0,(%rcx)
  400133:	8d 42 fe             	lea    0xfffffffffffffffe(%rdx),%eax
  400136:	83 f8 22             	cmp    $0x22,%eax
  400139:	76 07                	jbe    400142 <convert_to_string+0x12>
  40013b:	c6 06 00             	movb   $0x0,(%rsi)
  40013e:	48 89 f0             	mov    %rsi,%rax
  400141:	c3                   	retq   
  400142:	48 83 ec 20          	sub    $0x20,%rsp
  400146:	4c 8d 44 24 02       	lea    0x2(%rsp),%r8
  40014b:	b9 00 00 00 00       	mov    $0x0,%ecx
  400150:	4c 63 ca             	movslq %edx,%r9
  400153:	44 8d 51 01          	lea    0x1(%rcx),%r10d
  400157:	48 89 f8             	mov    %rdi,%rax
  40015a:	ba 00 00 00 00       	mov    $0x0,%edx
  40015f:	49 f7 f1             	div    %r9
  400162:	48 8d 3d fa 03 00 00 	lea    1018(%rip),%rdi        # 400563 <printf+0x3a8>
  400169:	0f b6 14 3a          	movzbl (%rdx,%rdi,1),%edx
  40016d:	41 88 10             	mov    %dl,(%r8)
  400170:	48 89 c7             	mov    %rax,%rdi
  400173:	49 ff c0             	inc    %r8
  400176:	48 85 c0             	test   %rax,%rax
  400179:	74 05                	je     400180 <convert_to_string+0x50>
  40017b:	44 89 d1             	mov    %r10d,%ecx
  40017e:	eb d3                	jmp    400153 <convert_to_string+0x23>
  400180:	41 89 c8             	mov    %ecx,%r8d
  400183:	4d 63 d2             	movslq %r10d,%r10
  400186:	42 c6 44 14 02 00    	movb   $0x0,0x2(%rsp,%r10,1)
  40018c:	85 c9                	test   %ecx,%ecx
  40018e:	78 20                	js     4001b0 <convert_to_string+0x80>
  400190:	48 89 f2             	mov    %rsi,%rdx
  400193:	48 63 c1             	movslq %ecx,%rax
  400196:	0f b6 7c 04 02       	movzbl 0x2(%rsp,%rax,1),%edi
  40019b:	40 88 3a             	mov    %dil,(%rdx)
  40019e:	ff c9                	dec    %ecx
  4001a0:	48 ff c2             	inc    %rdx
  4001a3:	83 f9 ff             	cmp    $0xffffffffffffffff,%ecx
  4001a6:	75 eb                	jne    400193 <convert_to_string+0x63>
  4001a8:	45 89 c0             	mov    %r8d,%r8d
  4001ab:	4a 8d 74 06 01       	lea    0x1(%rsi,%r8,1),%rsi
  4001b0:	c6 06 00             	movb   $0x0,(%rsi)
  4001b3:	48 89 f0             	mov    %rsi,%rax
  4001b6:	48 83 c4 20          	add    $0x20,%rsp
  4001ba:	c3                   	retq   

00000000004001bb <printf>:
  4001bb:	41 56                	push   %r14
  4001bd:	41 55                	push   %r13
  4001bf:	41 54                	push   %r12
  4001c1:	55                   	push   %rbp
  4001c2:	53                   	push   %rbx
  4001c3:	48 81 ec 10 01 00 00 	sub    $0x110,%rsp
  4001ca:	48 89 b4 24 e8 00 00 	mov    %rsi,0xe8(%rsp)
  4001d1:	00 
  4001d2:	48 89 94 24 f0 00 00 	mov    %rdx,0xf0(%rsp)
  4001d9:	00 
  4001da:	48 89 8c 24 f8 00 00 	mov    %rcx,0xf8(%rsp)
  4001e1:	00 
  4001e2:	4c 89 84 24 00 01 00 	mov    %r8,0x100(%rsp)
  4001e9:	00 
  4001ea:	4c 89 8c 24 08 01 00 	mov    %r9,0x108(%rsp)
  4001f1:	00 
  4001f2:	49 89 fc             	mov    %rdi,%r12
  4001f5:	c7 84 24 c8 00 00 00 	movl   $0x8,0xc8(%rsp)
  4001fc:	08 00 00 00 
  400200:	48 8d 84 24 40 01 00 	lea    0x140(%rsp),%rax
  400207:	00 
  400208:	48 89 84 24 d0 00 00 	mov    %rax,0xd0(%rsp)
  40020f:	00 
  400210:	48 8d 84 24 e0 00 00 	lea    0xe0(%rsp),%rax
  400217:	00 
  400218:	48 89 84 24 d8 00 00 	mov    %rax,0xd8(%rsp)
  40021f:	00 
  400220:	c6 44 24 0a 30       	movb   $0x30,0xa(%rsp)
  400225:	c6 44 24 0b 31       	movb   $0x31,0xb(%rsp)
  40022a:	c6 44 24 0c 32       	movb   $0x32,0xc(%rsp)
  40022f:	c6 44 24 0d 33       	movb   $0x33,0xd(%rsp)
  400234:	c6 44 24 0e 34       	movb   $0x34,0xe(%rsp)
  400239:	c6 44 24 0f 35       	movb   $0x35,0xf(%rsp)
  40023e:	c6 44 24 10 36       	movb   $0x36,0x10(%rsp)
  400243:	c6 44 24 11 37       	movb   $0x37,0x11(%rsp)
  400248:	c6 44 24 12 38       	movb   $0x38,0x12(%rsp)
  40024d:	c6 44 24 13 39       	movb   $0x39,0x13(%rsp)
  400252:	bb 00 00 00 00       	mov    $0x0,%ebx
  400257:	4c 8d 2d 2a 03 00 00 	lea    810(%rip),%r13        # 400588 <printf+0x3cd>
  40025e:	48 bd cd cc cc cc cc 	mov    $0xcccccccccccccccd,%rbp
  400265:	cc cc cc 
  400268:	4c 8d 74 24 64       	lea    0x64(%rsp),%r14
  40026d:	e9 60 02 00 00       	jmpq   4004d2 <printf+0x317>
  400272:	3c 09                	cmp    $0x9,%al
  400274:	74 1d                	je     400293 <printf+0xd8>
  400276:	3c 25                	cmp    $0x25,%al
  400278:	74 19                	je     400293 <printf+0xd8>
  40027a:	3c 0a                	cmp    $0xa,%al
  40027c:	0f 1f 40 00          	nopl   0x0(%rax)
  400280:	74 2b                	je     4002ad <printf+0xf2>
  400282:	48 63 d3             	movslq %ebx,%rdx
  400285:	88 44 14 14          	mov    %al,0x14(%rsp,%rdx,1)
  400289:	ff c3                	inc    %ebx
  40028b:	49 ff c4             	inc    %r12
  40028e:	e9 3f 02 00 00       	jmpq   4004d2 <printf+0x317>
  400293:	3c 09                	cmp    $0x9,%al
  400295:	75 12                	jne    4002a9 <printf+0xee>
  400297:	48 63 c3             	movslq %ebx,%rax
  40029a:	c6 44 04 14 09       	movb   $0x9,0x14(%rsp,%rax,1)
  40029f:	ff c3                	inc    %ebx
  4002a1:	49 ff c4             	inc    %r12
  4002a4:	e9 29 02 00 00       	jmpq   4004d2 <printf+0x317>
  4002a9:	3c 0a                	cmp    $0xa,%al
  4002ab:	75 12                	jne    4002bf <printf+0x104>
  4002ad:	48 63 c3             	movslq %ebx,%rax
  4002b0:	c6 44 04 14 0a       	movb   $0xa,0x14(%rsp,%rax,1)
  4002b5:	ff c3                	inc    %ebx
  4002b7:	49 ff c4             	inc    %r12
  4002ba:	e9 13 02 00 00       	jmpq   4004d2 <printf+0x317>
  4002bf:	41 0f b6 44 24 01    	movzbl 0x1(%r12),%eax
  4002c5:	83 e8 63             	sub    $0x63,%eax
  4002c8:	3c 15                	cmp    $0x15,%al
  4002ca:	0f 87 fe 01 00 00    	ja     4004ce <printf+0x313>
  4002d0:	0f b6 c0             	movzbl %al,%eax
  4002d3:	49 63 44 85 00       	movslq 0x0(%r13,%rax,4),%rax
  4002d8:	4c 01 e8             	add    %r13,%rax
  4002db:	ff e0                	jmpq   *%rax
  4002dd:	8b 84 24 c8 00 00 00 	mov    0xc8(%rsp),%eax
  4002e4:	83 f8 30             	cmp    $0x30,%eax
  4002e7:	73 16                	jae    4002ff <printf+0x144>
  4002e9:	89 c2                	mov    %eax,%edx
  4002eb:	48 03 94 24 d8 00 00 	add    0xd8(%rsp),%rdx
  4002f2:	00 
  4002f3:	83 c0 08             	add    $0x8,%eax
  4002f6:	89 84 24 c8 00 00 00 	mov    %eax,0xc8(%rsp)
  4002fd:	eb 14                	jmp    400313 <printf+0x158>
  4002ff:	48 8b 94 24 d0 00 00 	mov    0xd0(%rsp),%rdx
  400306:	00 
  400307:	48 8d 42 08          	lea    0x8(%rdx),%rax
  40030b:	48 89 84 24 d0 00 00 	mov    %rax,0xd0(%rsp)
  400312:	00 
  400313:	48 63 3a             	movslq (%rdx),%rdi
  400316:	4c 89 f1             	mov    %r14,%rcx
  400319:	ba 0a 00 00 00       	mov    $0xa,%edx
  40031e:	4c 89 f6             	mov    %r14,%rsi
  400321:	e8 0a fe ff ff       	callq  400130 <convert_to_string>
  400326:	0f b6 44 24 64       	movzbl 0x64(%rsp),%eax
  40032b:	84 c0                	test   %al,%al
  40032d:	0f 84 9b 01 00 00    	je     4004ce <printf+0x313>
  400333:	4c 89 f2             	mov    %r14,%rdx
  400336:	48 63 cb             	movslq %ebx,%rcx
  400339:	88 44 0c 14          	mov    %al,0x14(%rsp,%rcx,1)
  40033d:	48 ff c2             	inc    %rdx
  400340:	ff c3                	inc    %ebx
  400342:	0f b6 02             	movzbl (%rdx),%eax
  400345:	84 c0                	test   %al,%al
  400347:	75 ed                	jne    400336 <printf+0x17b>
  400349:	e9 80 01 00 00       	jmpq   4004ce <printf+0x313>
  40034e:	8b 84 24 c8 00 00 00 	mov    0xc8(%rsp),%eax
  400355:	83 f8 30             	cmp    $0x30,%eax
  400358:	73 16                	jae    400370 <printf+0x1b5>
  40035a:	89 c2                	mov    %eax,%edx
  40035c:	48 03 94 24 d8 00 00 	add    0xd8(%rsp),%rdx
  400363:	00 
  400364:	83 c0 08             	add    $0x8,%eax
  400367:	89 84 24 c8 00 00 00 	mov    %eax,0xc8(%rsp)
  40036e:	eb 14                	jmp    400384 <printf+0x1c9>
  400370:	48 8b 94 24 d0 00 00 	mov    0xd0(%rsp),%rdx
  400377:	00 
  400378:	48 8d 42 08          	lea    0x8(%rdx),%rax
  40037c:	48 89 84 24 d0 00 00 	mov    %rax,0xd0(%rsp)
  400383:	00 
  400384:	48 8b 12             	mov    (%rdx),%rdx
  400387:	0f b6 02             	movzbl (%rdx),%eax
  40038a:	84 c0                	test   %al,%al
  40038c:	0f 84 3c 01 00 00    	je     4004ce <printf+0x313>
  400392:	48 63 cb             	movslq %ebx,%rcx
  400395:	88 44 0c 14          	mov    %al,0x14(%rsp,%rcx,1)
  400399:	ff c3                	inc    %ebx
  40039b:	48 ff c2             	inc    %rdx
  40039e:	0f b6 02             	movzbl (%rdx),%eax
  4003a1:	84 c0                	test   %al,%al
  4003a3:	75 ed                	jne    400392 <printf+0x1d7>
  4003a5:	e9 24 01 00 00       	jmpq   4004ce <printf+0x313>
  4003aa:	8b 84 24 c8 00 00 00 	mov    0xc8(%rsp),%eax
  4003b1:	83 f8 30             	cmp    $0x30,%eax
  4003b4:	73 16                	jae    4003cc <printf+0x211>
  4003b6:	89 c7                	mov    %eax,%edi
  4003b8:	48 03 bc 24 d8 00 00 	add    0xd8(%rsp),%rdi
  4003bf:	00 
  4003c0:	83 c0 08             	add    $0x8,%eax
  4003c3:	89 84 24 c8 00 00 00 	mov    %eax,0xc8(%rsp)
  4003ca:	eb 14                	jmp    4003e0 <printf+0x225>
  4003cc:	48 8b bc 24 d0 00 00 	mov    0xd0(%rsp),%rdi
  4003d3:	00 
  4003d4:	48 8d 47 08          	lea    0x8(%rdi),%rax
  4003d8:	48 89 84 24 d0 00 00 	mov    %rax,0xd0(%rsp)
  4003df:	00 
  4003e0:	4c 89 f1             	mov    %r14,%rcx
  4003e3:	ba 10 00 00 00       	mov    $0x10,%edx
  4003e8:	4c 89 f6             	mov    %r14,%rsi
  4003eb:	48 8b 3f             	mov    (%rdi),%rdi
  4003ee:	e8 3d fd ff ff       	callq  400130 <convert_to_string>
  4003f3:	0f b6 44 24 64       	movzbl 0x64(%rsp),%eax
  4003f8:	84 c0                	test   %al,%al
  4003fa:	0f 84 ce 00 00 00    	je     4004ce <printf+0x313>
  400400:	4c 89 f2             	mov    %r14,%rdx
  400403:	48 63 cb             	movslq %ebx,%rcx
  400406:	88 44 0c 14          	mov    %al,0x14(%rsp,%rcx,1)
  40040a:	48 ff c2             	inc    %rdx
  40040d:	ff c3                	inc    %ebx
  40040f:	0f b6 02             	movzbl (%rdx),%eax
  400412:	84 c0                	test   %al,%al
  400414:	75 ed                	jne    400403 <printf+0x248>
  400416:	e9 b3 00 00 00       	jmpq   4004ce <printf+0x313>
  40041b:	8b 84 24 c8 00 00 00 	mov    0xc8(%rsp),%eax
  400422:	83 f8 30             	cmp    $0x30,%eax
  400425:	73 16                	jae    40043d <printf+0x282>
  400427:	89 c2                	mov    %eax,%edx
  400429:	48 03 94 24 d8 00 00 	add    0xd8(%rsp),%rdx
  400430:	00 
  400431:	83 c0 08             	add    $0x8,%eax
  400434:	89 84 24 c8 00 00 00 	mov    %eax,0xc8(%rsp)
  40043b:	eb 14                	jmp    400451 <printf+0x296>
  40043d:	48 8b 94 24 d0 00 00 	mov    0xd0(%rsp),%rdx
  400444:	00 
  400445:	48 8d 42 08          	lea    0x8(%rdx),%rax
  400449:	48 89 84 24 d0 00 00 	mov    %rax,0xd0(%rsp)
  400450:	00 
  400451:	48 63 c3             	movslq %ebx,%rax
  400454:	8b 12                	mov    (%rdx),%edx
  400456:	88 54 04 14          	mov    %dl,0x14(%rsp,%rax,1)
  40045a:	ff c3                	inc    %ebx
  40045c:	eb 70                	jmp    4004ce <printf+0x313>
  40045e:	8b 84 24 c8 00 00 00 	mov    0xc8(%rsp),%eax
  400465:	83 f8 30             	cmp    $0x30,%eax
  400468:	73 16                	jae    400480 <printf+0x2c5>
  40046a:	89 c2                	mov    %eax,%edx
  40046c:	48 03 94 24 d8 00 00 	add    0xd8(%rsp),%rdx
  400473:	00 
  400474:	83 c0 08             	add    $0x8,%eax
  400477:	89 84 24 c8 00 00 00 	mov    %eax,0xc8(%rsp)
  40047e:	eb 14                	jmp    400494 <printf+0x2d9>
  400480:	48 8b 94 24 d0 00 00 	mov    0xd0(%rsp),%rdx
  400487:	00 
  400488:	48 8d 42 08          	lea    0x8(%rdx),%rax
  40048c:	48 89 84 24 d0 00 00 	mov    %rax,0xd0(%rsp)
  400493:	00 
  400494:	48 8b 0a             	mov    (%rdx),%rcx
  400497:	48 85 c9             	test   %rcx,%rcx
  40049a:	74 32                	je     4004ce <printf+0x313>
  40049c:	48 63 f3             	movslq %ebx,%rsi
  40049f:	48 89 c8             	mov    %rcx,%rax
  4004a2:	48 f7 e5             	mul    %rbp
  4004a5:	48 c1 ea 03          	shr    $0x3,%rdx
  4004a9:	48 8d 04 d5 00 00 00 	lea    0x0(,%rdx,8),%rax
  4004b0:	00 
  4004b1:	48 8d 04 50          	lea    (%rax,%rdx,2),%rax
  4004b5:	48 29 c1             	sub    %rax,%rcx
  4004b8:	48 63 c9             	movslq %ecx,%rcx
  4004bb:	0f b6 44 0c 0a       	movzbl 0xa(%rsp,%rcx,1),%eax
  4004c0:	88 44 34 14          	mov    %al,0x14(%rsp,%rsi,1)
  4004c4:	48 89 d1             	mov    %rdx,%rcx
  4004c7:	ff c3                	inc    %ebx
  4004c9:	48 85 d2             	test   %rdx,%rdx
  4004cc:	75 ce                	jne    40049c <printf+0x2e1>
  4004ce:	49 83 c4 02          	add    $0x2,%r12
  4004d2:	41 0f b6 04 24       	movzbl (%r12),%eax
  4004d7:	84 c0                	test   %al,%al
  4004d9:	0f 85 93 fd ff ff    	jne    400272 <printf+0xb7>
  4004df:	48 63 db             	movslq %ebx,%rbx
  4004e2:	c6 44 1c 14 00       	movb   $0x0,0x14(%rsp,%rbx,1)
  4004e7:	48 8d 5c 24 14       	lea    0x14(%rsp),%rbx
  4004ec:	ba 00 00 00 00       	mov    $0x0,%edx
  4004f1:	b8 0a 00 00 00       	mov    $0xa,%eax
  4004f6:	48 89 d1             	mov    %rdx,%rcx
  4004f9:	48 89 d7             	mov    %rdx,%rdi
  4004fc:	cd 80                	int    $0x80
  4004fe:	b8 00 00 00 00       	mov    $0x0,%eax
  400503:	48 81 c4 10 01 00 00 	add    $0x110,%rsp
  40050a:	5b                   	pop    %rbx
  40050b:	5d                   	pop    %rbp
  40050c:	41 5c                	pop    %r12
  40050e:	41 5d                	pop    %r13
  400510:	41 5e                	pop    %r14
  400512:	c3                   	retq   
Disassembly of section .text:

00000000004000b0 <_start>:
  4000b0:	48 81 ec a8 00 00 00 	sub    $0xa8,%rsp
  4000b7:	48 89 e2             	mov    %rsp,%rdx
  4000ba:	48 8d 74 24 50       	lea    0x50(%rsp),%rsi
  4000bf:	bf 01 00 00 00       	mov    $0x1,%edi
  4000c4:	e8 0f 00 00 00       	callq  4000d8 <main>
  4000c9:	89 c7                	mov    %eax,%edi
  4000cb:	e8 3c 00 00 00       	callq  40010c <exit>
  4000d0:	48 81 c4 a8 00 00 00 	add    $0xa8,%rsp
  4000d7:	c3                   	retq   

00000000004000d8 <main>:
  4000d8:	48 83 ec 08          	sub    $0x8,%rsp
  4000dc:	48 8d 3d 35 04 00 00 	lea    1077(%rip),%rdi        # 400518 <printf+0x35d>
  4000e3:	b8 00 00 00 00       	mov    $0x0,%eax
  4000e8:	e8 ce 00 00 00       	callq  4001bb <printf>
  4000ed:	e8 2a 00 00 00       	callq  40011c <user_fork>
  4000f2:	be 00 00 00 00       	mov    $0x0,%esi
  4000f7:	48 8d 3d 26 04 00 00 	lea    1062(%rip),%rdi        # 400524 <printf+0x369>
  4000fe:	b8 00 00 00 00       	mov    $0x0,%eax
  400103:	e8 b3 00 00 00       	callq  4001bb <printf>
  400108:	eb fe                	jmp    400108 <main+0x30>
  40010a:	90                   	nop    
  40010b:	90                   	nop    

000000000040010c <exit>:
  40010c:	53                   	push   %rbx
  40010d:	b8 00 00 00 00       	mov    $0x0,%eax
  400112:	bb 01 00 00 00       	mov    $0x1,%ebx
  400117:	cd 80                	int    $0x80
  400119:	5b                   	pop    %rbx
  40011a:	c3                   	retq   
  40011b:	90                   	nop    

000000000040011c <user_fork>:
  40011c:	53                   	push   %rbx
  40011d:	b8 19 00 00 00       	mov    $0x19,%eax
  400122:	cd 80                	int    $0x80
  400124:	c3                   	retq   
  400125:	90                   	nop    
  400126:	90                   	nop    
  400127:	90                   	nop    
  400128:	90                   	nop    
  400129:	90                   	nop    
  40012a:	90                   	nop    
  40012b:	90                   	nop    
  40012c:	90                   	nop    
  40012d:	90                   	nop    
  40012e:	90                   	nop    
  40012f:	90                   	nop    

0000000000400130 <convert_to_string>:
  400130:	c6 01 00             	movb   $0x0,(%rcx)
  400133:	8d 42 fe             	lea    0xfffffffffffffffe(%rdx),%eax
  400136:	83 f8 22             	cmp    $0x22,%eax
  400139:	76 07                	jbe    400142 <convert_to_string+0x12>
  40013b:	c6 06 00             	movb   $0x0,(%rsi)
  40013e:	48 89 f0             	mov    %rsi,%rax
  400141:	c3                   	retq   
  400142:	48 83 ec 20          	sub    $0x20,%rsp
  400146:	4c 8d 44 24 02       	lea    0x2(%rsp),%r8
  40014b:	b9 00 00 00 00       	mov    $0x0,%ecx
  400150:	4c 63 ca             	movslq %edx,%r9
  400153:	44 8d 51 01          	lea    0x1(%rcx),%r10d
  400157:	48 89 f8             	mov    %rdi,%rax
  40015a:	ba 00 00 00 00       	mov    $0x0,%edx
  40015f:	49 f7 f1             	div    %r9
  400162:	48 8d 3d fa 03 00 00 	lea    1018(%rip),%rdi        # 400563 <printf+0x3a8>
  400169:	0f b6 14 3a          	movzbl (%rdx,%rdi,1),%edx
  40016d:	41 88 10             	mov    %dl,(%r8)
  400170:	48 89 c7             	mov    %rax,%rdi
  400173:	49 ff c0             	inc    %r8
  400176:	48 85 c0             	test   %rax,%rax
  400179:	74 05                	je     400180 <convert_to_string+0x50>
  40017b:	44 89 d1             	mov    %r10d,%ecx
  40017e:	eb d3                	jmp    400153 <convert_to_string+0x23>
  400180:	41 89 c8             	mov    %ecx,%r8d
  400183:	4d 63 d2             	movslq %r10d,%r10
  400186:	42 c6 44 14 02 00    	movb   $0x0,0x2(%rsp,%r10,1)
  40018c:	85 c9                	test   %ecx,%ecx
  40018e:	78 20                	js     4001b0 <convert_to_string+0x80>
  400190:	48 89 f2             	mov    %rsi,%rdx
  400193:	48 63 c1             	movslq %ecx,%rax
  400196:	0f b6 7c 04 02       	movzbl 0x2(%rsp,%rax,1),%edi
  40019b:	40 88 3a             	mov    %dil,(%rdx)
  40019e:	ff c9                	dec    %ecx
  4001a0:	48 ff c2             	inc    %rdx
  4001a3:	83 f9 ff             	cmp    $0xffffffffffffffff,%ecx
  4001a6:	75 eb                	jne    400193 <convert_to_string+0x63>
  4001a8:	45 89 c0             	mov    %r8d,%r8d
  4001ab:	4a 8d 74 06 01       	lea    0x1(%rsi,%r8,1),%rsi
  4001b0:	c6 06 00             	movb   $0x0,(%rsi)
  4001b3:	48 89 f0             	mov    %rsi,%rax
  4001b6:	48 83 c4 20          	add    $0x20,%rsp
  4001ba:	c3                   	retq   

00000000004001bb <printf>:
  4001bb:	41 56                	push   %r14
  4001bd:	41 55                	push   %r13
  4001bf:	41 54                	push   %r12
  4001c1:	55                   	push   %rbp
  4001c2:	53                   	push   %rbx
  4001c3:	48 81 ec 10 01 00 00 	sub    $0x110,%rsp
  4001ca:	48 89 b4 24 e8 00 00 	mov    %rsi,0xe8(%rsp)
  4001d1:	00 
  4001d2:	48 89 94 24 f0 00 00 	mov    %rdx,0xf0(%rsp)
  4001d9:	00 
  4001da:	48 89 8c 24 f8 00 00 	mov    %rcx,0xf8(%rsp)
  4001e1:	00 
  4001e2:	4c 89 84 24 00 01 00 	mov    %r8,0x100(%rsp)
  4001e9:	00 
  4001ea:	4c 89 8c 24 08 01 00 	mov    %r9,0x108(%rsp)
  4001f1:	00 
  4001f2:	49 89 fc             	mov    %rdi,%r12
  4001f5:	c7 84 24 c8 00 00 00 	movl   $0x8,0xc8(%rsp)
  4001fc:	08 00 00 00 
  400200:	48 8d 84 24 40 01 00 	lea    0x140(%rsp),%rax
  400207:	00 
  400208:	48 89 84 24 d0 00 00 	mov    %rax,0xd0(%rsp)
  40020f:	00 
  400210:	48 8d 84 24 e0 00 00 	lea    0xe0(%rsp),%rax
  400217:	00 
  400218:	48 89 84 24 d8 00 00 	mov    %rax,0xd8(%rsp)
  40021f:	00 
  400220:	c6 44 24 0a 30       	movb   $0x30,0xa(%rsp)
  400225:	c6 44 24 0b 31       	movb   $0x31,0xb(%rsp)
  40022a:	c6 44 24 0c 32       	movb   $0x32,0xc(%rsp)
  40022f:	c6 44 24 0d 33       	movb   $0x33,0xd(%rsp)
  400234:	c6 44 24 0e 34       	movb   $0x34,0xe(%rsp)
  400239:	c6 44 24 0f 35       	movb   $0x35,0xf(%rsp)
  40023e:	c6 44 24 10 36       	movb   $0x36,0x10(%rsp)
  400243:	c6 44 24 11 37       	movb   $0x37,0x11(%rsp)
  400248:	c6 44 24 12 38       	movb   $0x38,0x12(%rsp)
  40024d:	c6 44 24 13 39       	movb   $0x39,0x13(%rsp)
  400252:	bb 00 00 00 00       	mov    $0x0,%ebx
  400257:	4c 8d 2d 2a 03 00 00 	lea    810(%rip),%r13        # 400588 <printf+0x3cd>
  40025e:	48 bd cd cc cc cc cc 	mov    $0xcccccccccccccccd,%rbp
  400265:	cc cc cc 
  400268:	4c 8d 74 24 64       	lea    0x64(%rsp),%r14
  40026d:	e9 60 02 00 00       	jmpq   4004d2 <printf+0x317>
  400272:	3c 09                	cmp    $0x9,%al
  400274:	74 1d                	je     400293 <printf+0xd8>
  400276:	3c 25                	cmp    $0x25,%al
  400278:	74 19                	je     400293 <printf+0xd8>
  40027a:	3c 0a                	cmp    $0xa,%al
  40027c:	0f 1f 40 00          	nopl   0x0(%rax)
  400280:	74 2b                	je     4002ad <printf+0xf2>
  400282:	48 63 d3             	movslq %ebx,%rdx
  400285:	88 44 14 14          	mov    %al,0x14(%rsp,%rdx,1)
  400289:	ff c3                	inc    %ebx
  40028b:	49 ff c4             	inc    %r12
  40028e:	e9 3f 02 00 00       	jmpq   4004d2 <printf+0x317>
  400293:	3c 09                	cmp    $0x9,%al
  400295:	75 12                	jne    4002a9 <printf+0xee>
  400297:	48 63 c3             	movslq %ebx,%rax
  40029a:	c6 44 04 14 09       	movb   $0x9,0x14(%rsp,%rax,1)
  40029f:	ff c3                	inc    %ebx
  4002a1:	49 ff c4             	inc    %r12
  4002a4:	e9 29 02 00 00       	jmpq   4004d2 <printf+0x317>
  4002a9:	3c 0a                	cmp    $0xa,%al
  4002ab:	75 12                	jne    4002bf <printf+0x104>
  4002ad:	48 63 c3             	movslq %ebx,%rax
  4002b0:	c6 44 04 14 0a       	movb   $0xa,0x14(%rsp,%rax,1)
  4002b5:	ff c3                	inc    %ebx
  4002b7:	49 ff c4             	inc    %r12
  4002ba:	e9 13 02 00 00       	jmpq   4004d2 <printf+0x317>
  4002bf:	41 0f b6 44 24 01    	movzbl 0x1(%r12),%eax
  4002c5:	83 e8 63             	sub    $0x63,%eax
  4002c8:	3c 15                	cmp    $0x15,%al
  4002ca:	0f 87 fe 01 00 00    	ja     4004ce <printf+0x313>
  4002d0:	0f b6 c0             	movzbl %al,%eax
  4002d3:	49 63 44 85 00       	movslq 0x0(%r13,%rax,4),%rax
  4002d8:	4c 01 e8             	add    %r13,%rax
  4002db:	ff e0                	jmpq   *%rax
  4002dd:	8b 84 24 c8 00 00 00 	mov    0xc8(%rsp),%eax
  4002e4:	83 f8 30             	cmp    $0x30,%eax
  4002e7:	73 16                	jae    4002ff <printf+0x144>
  4002e9:	89 c2                	mov    %eax,%edx
  4002eb:	48 03 94 24 d8 00 00 	add    0xd8(%rsp),%rdx
  4002f2:	00 
  4002f3:	83 c0 08             	add    $0x8,%eax
  4002f6:	89 84 24 c8 00 00 00 	mov    %eax,0xc8(%rsp)
  4002fd:	eb 14                	jmp    400313 <printf+0x158>
  4002ff:	48 8b 94 24 d0 00 00 	mov    0xd0(%rsp),%rdx
  400306:	00 
  400307:	48 8d 42 08          	lea    0x8(%rdx),%rax
  40030b:	48 89 84 24 d0 00 00 	mov    %rax,0xd0(%rsp)
  400312:	00 
  400313:	48 63 3a             	movslq (%rdx),%rdi
  400316:	4c 89 f1             	mov    %r14,%rcx
  400319:	ba 0a 00 00 00       	mov    $0xa,%edx
  40031e:	4c 89 f6             	mov    %r14,%rsi
  400321:	e8 0a fe ff ff       	callq  400130 <convert_to_string>
  400326:	0f b6 44 24 64       	movzbl 0x64(%rsp),%eax
  40032b:	84 c0                	test   %al,%al
  40032d:	0f 84 9b 01 00 00    	je     4004ce <printf+0x313>
  400333:	4c 89 f2             	mov    %r14,%rdx
  400336:	48 63 cb             	movslq %ebx,%rcx
  400339:	88 44 0c 14          	mov    %al,0x14(%rsp,%rcx,1)
  40033d:	48 ff c2             	inc    %rdx
  400340:	ff c3                	inc    %ebx
  400342:	0f b6 02             	movzbl (%rdx),%eax
  400345:	84 c0                	test   %al,%al
  400347:	75 ed                	jne    400336 <printf+0x17b>
  400349:	e9 80 01 00 00       	jmpq   4004ce <printf+0x313>
  40034e:	8b 84 24 c8 00 00 00 	mov    0xc8(%rsp),%eax
  400355:	83 f8 30             	cmp    $0x30,%eax
  400358:	73 16                	jae    400370 <printf+0x1b5>
  40035a:	89 c2                	mov    %eax,%edx
  40035c:	48 03 94 24 d8 00 00 	add    0xd8(%rsp),%rdx
  400363:	00 
  400364:	83 c0 08             	add    $0x8,%eax
  400367:	89 84 24 c8 00 00 00 	mov    %eax,0xc8(%rsp)
  40036e:	eb 14                	jmp    400384 <printf+0x1c9>
  400370:	48 8b 94 24 d0 00 00 	mov    0xd0(%rsp),%rdx
  400377:	00 
  400378:	48 8d 42 08          	lea    0x8(%rdx),%rax
  40037c:	48 89 84 24 d0 00 00 	mov    %rax,0xd0(%rsp)
  400383:	00 
  400384:	48 8b 12             	mov    (%rdx),%rdx
  400387:	0f b6 02             	movzbl (%rdx),%eax
  40038a:	84 c0                	test   %al,%al
  40038c:	0f 84 3c 01 00 00    	je     4004ce <printf+0x313>
  400392:	48 63 cb             	movslq %ebx,%rcx
  400395:	88 44 0c 14          	mov    %al,0x14(%rsp,%rcx,1)
  400399:	ff c3                	inc    %ebx
  40039b:	48 ff c2             	inc    %rdx
  40039e:	0f b6 02             	movzbl (%rdx),%eax
  4003a1:	84 c0                	test   %al,%al
  4003a3:	75 ed                	jne    400392 <printf+0x1d7>
  4003a5:	e9 24 01 00 00       	jmpq   4004ce <printf+0x313>
  4003aa:	8b 84 24 c8 00 00 00 	mov    0xc8(%rsp),%eax
  4003b1:	83 f8 30             	cmp    $0x30,%eax
  4003b4:	73 16                	jae    4003cc <printf+0x211>
  4003b6:	89 c7                	mov    %eax,%edi
  4003b8:	48 03 bc 24 d8 00 00 	add    0xd8(%rsp),%rdi
  4003bf:	00 
  4003c0:	83 c0 08             	add    $0x8,%eax
  4003c3:	89 84 24 c8 00 00 00 	mov    %eax,0xc8(%rsp)
  4003ca:	eb 14                	jmp    4003e0 <printf+0x225>
  4003cc:	48 8b bc 24 d0 00 00 	mov    0xd0(%rsp),%rdi
  4003d3:	00 
  4003d4:	48 8d 47 08          	lea    0x8(%rdi),%rax
  4003d8:	48 89 84 24 d0 00 00 	mov    %rax,0xd0(%rsp)
  4003df:	00 
  4003e0:	4c 89 f1             	mov    %r14,%rcx
  4003e3:	ba 10 00 00 00       	mov    $0x10,%edx
  4003e8:	4c 89 f6             	mov    %r14,%rsi
  4003eb:	48 8b 3f             	mov    (%rdi),%rdi
  4003ee:	e8 3d fd ff ff       	callq  400130 <convert_to_string>
  4003f3:	0f b6 44 24 64       	movzbl 0x64(%rsp),%eax
  4003f8:	84 c0                	test   %al,%al
  4003fa:	0f 84 ce 00 00 00    	je     4004ce <printf+0x313>
  400400:	4c 89 f2             	mov    %r14,%rdx
  400403:	48 63 cb             	movslq %ebx,%rcx
  400406:	88 44 0c 14          	mov    %al,0x14(%rsp,%rcx,1)
  40040a:	48 ff c2             	inc    %rdx
  40040d:	ff c3                	inc    %ebx
  40040f:	0f b6 02             	movzbl (%rdx),%eax
  400412:	84 c0                	test   %al,%al
  400414:	75 ed                	jne    400403 <printf+0x248>
  400416:	e9 b3 00 00 00       	jmpq   4004ce <printf+0x313>
  40041b:	8b 84 24 c8 00 00 00 	mov    0xc8(%rsp),%eax
  400422:	83 f8 30             	cmp    $0x30,%eax
  400425:	73 16                	jae    40043d <printf+0x282>
  400427:	89 c2                	mov    %eax,%edx
  400429:	48 03 94 24 d8 00 00 	add    0xd8(%rsp),%rdx
  400430:	00 
  400431:	83 c0 08             	add    $0x8,%eax
  400434:	89 84 24 c8 00 00 00 	mov    %eax,0xc8(%rsp)
  40043b:	eb 14                	jmp    400451 <printf+0x296>
  40043d:	48 8b 94 24 d0 00 00 	mov    0xd0(%rsp),%rdx
  400444:	00 
  400445:	48 8d 42 08          	lea    0x8(%rdx),%rax
  400449:	48 89 84 24 d0 00 00 	mov    %rax,0xd0(%rsp)
  400450:	00 
  400451:	48 63 c3             	movslq %ebx,%rax
  400454:	8b 12                	mov    (%rdx),%edx
  400456:	88 54 04 14          	mov    %dl,0x14(%rsp,%rax,1)
  40045a:	ff c3                	inc    %ebx
  40045c:	eb 70                	jmp    4004ce <printf+0x313>
  40045e:	8b 84 24 c8 00 00 00 	mov    0xc8(%rsp),%eax
  400465:	83 f8 30             	cmp    $0x30,%eax
  400468:	73 16                	jae    400480 <printf+0x2c5>
  40046a:	89 c2                	mov    %eax,%edx
  40046c:	48 03 94 24 d8 00 00 	add    0xd8(%rsp),%rdx
  400473:	00 
  400474:	83 c0 08             	add    $0x8,%eax
  400477:	89 84 24 c8 00 00 00 	mov    %eax,0xc8(%rsp)
  40047e:	eb 14                	jmp    400494 <printf+0x2d9>
  400480:	48 8b 94 24 d0 00 00 	mov    0xd0(%rsp),%rdx
  400487:	00 
  400488:	48 8d 42 08          	lea    0x8(%rdx),%rax
  40048c:	48 89 84 24 d0 00 00 	mov    %rax,0xd0(%rsp)
  400493:	00 
  400494:	48 8b 0a             	mov    (%rdx),%rcx
  400497:	48 85 c9             	test   %rcx,%rcx
  40049a:	74 32                	je     4004ce <printf+0x313>
  40049c:	48 63 f3             	movslq %ebx,%rsi
  40049f:	48 89 c8             	mov    %rcx,%rax
  4004a2:	48 f7 e5             	mul    %rbp
  4004a5:	48 c1 ea 03          	shr    $0x3,%rdx
  4004a9:	48 8d 04 d5 00 00 00 	lea    0x0(,%rdx,8),%rax
  4004b0:	00 
  4004b1:	48 8d 04 50          	lea    (%rax,%rdx,2),%rax
  4004b5:	48 29 c1             	sub    %rax,%rcx
  4004b8:	48 63 c9             	movslq %ecx,%rcx
  4004bb:	0f b6 44 0c 0a       	movzbl 0xa(%rsp,%rcx,1),%eax
  4004c0:	88 44 34 14          	mov    %al,0x14(%rsp,%rsi,1)
  4004c4:	48 89 d1             	mov    %rdx,%rcx
  4004c7:	ff c3                	inc    %ebx
  4004c9:	48 85 d2             	test   %rdx,%rdx
  4004cc:	75 ce                	jne    40049c <printf+0x2e1>
  4004ce:	49 83 c4 02          	add    $0x2,%r12
  4004d2:	41 0f b6 04 24       	movzbl (%r12),%eax
  4004d7:	84 c0                	test   %al,%al
  4004d9:	0f 85 93 fd ff ff    	jne    400272 <printf+0xb7>
  4004df:	48 63 db             	movslq %ebx,%rbx
  4004e2:	c6 44 1c 14 00       	movb   $0x0,0x14(%rsp,%rbx,1)
  4004e7:	48 8d 5c 24 14       	lea    0x14(%rsp),%rbx
  4004ec:	ba 00 00 00 00       	mov    $0x0,%edx
  4004f1:	b8 0a 00 00 00       	mov    $0xa,%eax
  4004f6:	48 89 d1             	mov    %rdx,%rcx
  4004f9:	48 89 d7             	mov    %rdx,%rdi
  4004fc:	cd 80                	int    $0x80
  4004fe:	b8 00 00 00 00       	mov    $0x0,%eax
  400503:	48 81 c4 10 01 00 00 	add    $0x110,%rsp
  40050a:	5b                   	pop    %rbx
  40050b:	5d                   	pop    %rbp
  40050c:	41 5c                	pop    %r12
  40050e:	41 5d                	pop    %r13
  400510:	41 5e                	pop    %r14
  400512:	c3                   	retq   